target datalayout = "e-m:e-p270:32:32-p271:32:32-p272:64:64-i64:64-i128:128-f80:128-n8:16:32:64-S128"
target triple = "x86_64-pc-linux-gnu"

%struct.strbuf = type { i64, i64, ptr }
%struct.strvec = type { ptr, i64, i64 }
%struct.pathspec = type { i32, i8, i32, i32, ptr }
%struct.string_list = type { ptr, i64, i64, i8, ptr }
%struct.rev_info = type { ptr, %struct.object_array, ptr, %struct.object_array, %struct.rev_cmdline_info, %struct.list_objects_filter_options, %struct.ref_exclusions, ptr, ptr, ptr, %struct.pathspec, i32, i32, i32, i32, i64, i32, i32, %struct.date_mode, i32, i32, i32, i32, ptr, i32, i32, ptr, ptr, i32, ptr, ptr, %struct.ident_split, ptr, i32, ptr, ptr, ptr, i32, i32, i32, ptr, %struct.grep_opt, ptr, i32, i32, i64, i64, i64, i32, i32, ptr, ptr, ptr, %struct.diff_options, %struct.diff_options, ptr, %struct.decoration, %struct.decoration, %struct.decoration, %struct.display_notes_opt, ptr, ptr, ptr, ptr, ptr, i32, ptr, i32, i32, i32, %struct.decoration, ptr, ptr, ptr, ptr, ptr, ptr, ptr, i32, ptr, i32, ptr, %struct.oidset }
%struct.object_array = type { i32, i32, ptr }
%struct.rev_cmdline_info = type { i32, i32, ptr }
%struct.list_objects_filter_options = type { %struct.strbuf, i32, i8, ptr, i64, i64, i32, i64, i64, ptr }
%struct.ref_exclusions = type { %struct.string_list, %struct.strvec, i8 }
%struct.date_mode = type { i32, i32, ptr }
%struct.ident_split = type { ptr, ptr, ptr, ptr, ptr, ptr, ptr, ptr }
%struct.grep_opt = type { ptr, ptr, ptr, ptr, ptr, ptr, i32, i32, i32, i32, i32, i32, i32, i32, i32, i32, i32, i32, i32, i32, i32, i32, i32, i32, i32, i32, i32, i32, i32, i32, i32, i32, [9 x [75 x i8]], i32, i32, i32, i32, i32, i32, i32, ptr, ptr, ptr }
%struct.diff_options = type { ptr, ptr, i32, i32, ptr, i32, ptr, i64, i64, ptr, ptr, ptr, ptr, %struct.diff_flags, i32, i32, i32, i32, i32, i32, i32, i32, i32, i32, i32, i32, i32, i32, i32, i32, i32, i32, i32, i32, i32, i32, ptr, i32, ptr, i32, i32, ptr, i64, i64, i32, i32, i32, i32, ptr, i32, i32, ptr, i32, i32, ptr, ptr, i32, [3 x i8], %struct.pathspec, ptr, ptr, ptr, ptr, ptr, ptr, ptr, ptr, i32, ptr, i32, i32, ptr, ptr, i32 }
%struct.diff_flags = type { i32, i32, i32, i32, i32, i32, i32, i32, i32, i32, i32, i32, i32, i32, i32, i32, i32, i32, i32, i32, i32, i32, i32, i32, i32, i32, i32, i32, i32, i32, i32, i32, i32, i32, i32 }
%struct.display_notes_opt = type { i32, %struct.string_list }
%struct.decoration = type { ptr, i32, i32, ptr }
%struct.oidset = type { %struct.kh_oid_set }
%struct.kh_oid_set = type { i32, i32, i32, i32, ptr, ptr, ptr }
%struct.repository = type { ptr, ptr, ptr, ptr, ptr, %struct.strmap, %struct.strmap, %struct.repo_path_cache, ptr, ptr, ptr, ptr, %struct.repo_settings, ptr, ptr, ptr, ptr, ptr, ptr, i32, i32, i32, ptr, ptr, i32, i32, i8 }
%struct.strmap = type { %struct.hashmap, ptr, i8 }
%struct.hashmap = type { ptr, ptr, ptr, i32, i32, i32, i32, i8 }
%struct.repo_path_cache = type { ptr, ptr, ptr, ptr, ptr, ptr, ptr }
%struct.repo_settings = type { i32, i32, i32, i32, i32, i32, i32, i32, i32, i32, i32, i32, ptr, i32, i32, i32, i32, i32, i32, i32, i64, i64, i64 }
%struct.lock_file = type { ptr }

@.str.2 = private unnamed_addr constant [12 x i8] c"wt-status.c\00", align 1
@.str.10 = private unnamed_addr constant [3 x i8] c"%s\00", align 1
@.str.29 = private unnamed_addr constant [1 x i8] zeroinitializer, align 1
@.str.30 = private unnamed_addr constant [38 x i8] c"cannot %s: You have unstaged changes.\00", align 1
@.str.31 = private unnamed_addr constant [55 x i8] c"additionally, your index contains uncommitted changes.\00", align 1
@.str.32 = private unnamed_addr constant [52 x i8] c"cannot %s: Your index contains uncommitted changes.\00", align 1
@.str.33 = private unnamed_addr constant [65 x i8] c"empty hint passed to require_clean_work_tree(); use NULL instead\00", align 1
@git_gettext_enabled = external global i32, align 4

; Function Attrs: inlinehint nounwind uwtable
define internal i32 @const_error() #8 {
  ret i32 -1
}

; Function Attrs: inlinehint nounwind uwtable
define internal ptr @_(ptr noundef %0) #8 {
  %2 = alloca ptr, align 8
  %3 = alloca ptr, align 8
  store ptr %0, ptr %3, align 8, !tbaa !9
  %4 = load ptr, ptr %3, align 8, !tbaa !9
  %5 = load i8, ptr %4, align 1, !tbaa !30
  %6 = icmp ne i8 %5, 0
  br i1 %6, label %8, label %7

7:                                                ; preds = %1
  store ptr @.str.29, ptr %2, align 8
  br label %16

8:                                                ; preds = %1
  %9 = load i32, ptr @git_gettext_enabled, align 4, !tbaa !11
  %10 = icmp ne i32 %9, 0
  br i1 %10, label %13, label %11

11:                                               ; preds = %8
  %12 = load ptr, ptr %3, align 8, !tbaa !9
  store ptr %12, ptr %2, align 8
  br label %16

13:                                               ; preds = %8
  %14 = load ptr, ptr %3, align 8, !tbaa !9
  %15 = call ptr @dcgettext(ptr noundef null, ptr noundef %14, i32 noundef 5) #12
  store ptr %15, ptr %2, align 8
  br label %16

16:                                               ; preds = %13, %11, %7
  %17 = load ptr, ptr %2, align 8
  ret ptr %17
}

; Function Attrs: nounwind uwtable
define dso_local i32 @has_unstaged_changes(ptr noundef %0, i32 noundef %1) #0 {
  %3 = alloca ptr, align 8
  %4 = alloca i32, align 4
  %5 = alloca %struct.rev_info, align 8
  %6 = alloca i32, align 4
  store ptr %0, ptr %3, align 8, !tbaa !33
  store i32 %1, ptr %4, align 4, !tbaa !11
  call void @llvm.lifetime.start.p0(i64 3008, ptr %5) #12
  call void @llvm.lifetime.start.p0(i64 4, ptr %6) #12
  %7 = load ptr, ptr %3, align 8, !tbaa !33
  call void @repo_init_revisions(ptr noundef %7, ptr noundef %5, ptr noundef null)
  %8 = load i32, ptr %4, align 4, !tbaa !11
  %9 = icmp ne i32 %8, 0
  br i1 %9, label %10, label %17

10:                                               ; preds = %2
  %11 = getelementptr inbounds nuw %struct.rev_info, ptr %5, i32 0, i32 53
  %12 = getelementptr inbounds nuw %struct.diff_options, ptr %11, i32 0, i32 13
  %13 = getelementptr inbounds nuw %struct.diff_flags, ptr %12, i32 0, i32 17
  store i32 1, ptr %13, align 4, !tbaa !237
  %14 = getelementptr inbounds nuw %struct.rev_info, ptr %5, i32 0, i32 53
  %15 = getelementptr inbounds nuw %struct.diff_options, ptr %14, i32 0, i32 13
  %16 = getelementptr inbounds nuw %struct.diff_flags, ptr %15, i32 0, i32 27
  store i32 1, ptr %16, align 4, !tbaa !96
  br label %17

17:                                               ; preds = %10, %2
  %18 = getelementptr inbounds nuw %struct.rev_info, ptr %5, i32 0, i32 53
  %19 = getelementptr inbounds nuw %struct.diff_options, ptr %18, i32 0, i32 13
  %20 = getelementptr inbounds nuw %struct.diff_flags, ptr %19, i32 0, i32 10
  store i32 1, ptr %20, align 8, !tbaa !238
  %21 = getelementptr inbounds nuw %struct.rev_info, ptr %5, i32 0, i32 53
  call void @diff_setup_done(ptr noundef %21)
  call void @run_diff_files(ptr noundef %5, i32 noundef 0)
  %22 = call i32 @diff_result_code(ptr noundef %5)
  store i32 %22, ptr %6, align 4, !tbaa !11
  call void @release_revisions(ptr noundef %5)
  %23 = load i32, ptr %6, align 4, !tbaa !11
  call void @llvm.lifetime.end.p0(i64 4, ptr %6) #12
  call void @llvm.lifetime.end.p0(i64 3008, ptr %5) #12
  ret i32 %23
}

; Function Attrs: inlinehint nounwind uwtable
define internal i32 @rollback_lock_file(ptr noundef %0) #8 {
  %2 = alloca ptr, align 8
  store ptr %0, ptr %2, align 8, !tbaa !242
  %3 = load ptr, ptr %2, align 8, !tbaa !242
  %4 = getelementptr inbounds nuw %struct.lock_file, ptr %3, i32 0, i32 0
  %5 = call i32 @delete_tempfile(ptr noundef %4)
  ret i32 %5
}

; Function Attrs: nounwind uwtable
define dso_local i32 @require_clean_work_tree(ptr noundef %0, ptr noundef %1, ptr noundef %2, i32 noundef %3, i32 noundef %4) #0 {
  %6 = alloca ptr, align 8
  %7 = alloca ptr, align 8
  %8 = alloca ptr, align 8
  %9 = alloca i32, align 4
  %10 = alloca i32, align 4
  %11 = alloca %struct.lock_file, align 8
  %12 = alloca i32, align 4
  %13 = alloca i32, align 4
  store ptr %0, ptr %6, align 8, !tbaa !33
  store ptr %1, ptr %7, align 8, !tbaa !9
  store ptr %2, ptr %8, align 8, !tbaa !9
  store i32 %3, ptr %9, align 4, !tbaa !11
  store i32 %4, ptr %10, align 4, !tbaa !11
  call void @llvm.lifetime.start.p0(i64 8, ptr %11) #12
  call void @llvm.memset.p0.i64(ptr align 8 %11, i8 0, i64 8, i1 false)
  call void @llvm.lifetime.start.p0(i64 4, ptr %12) #12
  store i32 0, ptr %12, align 4, !tbaa !11
  call void @llvm.lifetime.start.p0(i64 4, ptr %13) #12
  %14 = load ptr, ptr %6, align 8, !tbaa !33
  %15 = call i32 @repo_hold_locked_index(ptr noundef %14, ptr noundef %11, i32 noundef 0)
  store i32 %15, ptr %13, align 4, !tbaa !11
  %16 = load ptr, ptr %6, align 8, !tbaa !33
  %17 = getelementptr inbounds nuw %struct.repository, ptr %16, i32 0, i32 15
  %18 = load ptr, ptr %17, align 8, !tbaa !103
  %19 = call i32 @refresh_index(ptr noundef %18, i32 noundef 4, ptr noundef null, ptr noundef null, ptr noundef null)
  %20 = load i32, ptr %13, align 4, !tbaa !11
  %21 = icmp sle i32 0, %20
  br i1 %21, label %22, label %24

22:                                               ; preds = %5
  %23 = load ptr, ptr %6, align 8, !tbaa !33
  call void @repo_update_index_if_able(ptr noundef %23, ptr noundef %11)
  br label %24

24:                                               ; preds = %22, %5
  %25 = call i32 @rollback_lock_file(ptr noundef %11)
  %26 = load ptr, ptr %6, align 8, !tbaa !33
  %27 = load i32, ptr %9, align 4, !tbaa !11
  %28 = call i32 @has_unstaged_changes(ptr noundef %26, i32 noundef %27)
  %29 = icmp ne i32 %28, 0
  br i1 %29, label %30, label %36

30:                                               ; preds = %24
  %31 = call ptr @_(ptr noundef @.str.30)
  %32 = load ptr, ptr %7, align 8, !tbaa !9
  %33 = call ptr @_(ptr noundef %32)
  %34 = call i32 (ptr, ...) @error(ptr noundef %31, ptr noundef %33)
  %35 = call i32 @const_error()
  store i32 1, ptr %12, align 4, !tbaa !11
  br label %36

36:                                               ; preds = %30, %24
  %37 = load ptr, ptr %6, align 8, !tbaa !33
  %38 = load i32, ptr %9, align 4, !tbaa !11
  %39 = call i32 @has_uncommitted_changes(ptr noundef %37, i32 noundef %38)
  %40 = icmp ne i32 %39, 0
  br i1 %40, label %41, label %55

41:                                               ; preds = %36
  %42 = load i32, ptr %12, align 4, !tbaa !11
  %43 = icmp ne i32 %42, 0
  br i1 %43, label %44, label %48

44:                                               ; preds = %41
  %45 = call ptr @_(ptr noundef @.str.31)
  %46 = call i32 (ptr, ...) @error(ptr noundef %45)
  %47 = call i32 @const_error()
  br label %54

48:                                               ; preds = %41
  %49 = call ptr @_(ptr noundef @.str.32)
  %50 = load ptr, ptr %7, align 8, !tbaa !9
  %51 = call ptr @_(ptr noundef %50)
  %52 = call i32 (ptr, ...) @error(ptr noundef %49, ptr noundef %51)
  %53 = call i32 @const_error()
  br label %54

54:                                               ; preds = %48, %44
  store i32 1, ptr %12, align 4, !tbaa !11
  br label %55

55:                                               ; preds = %54, %36
  %56 = load i32, ptr %12, align 4, !tbaa !11
  %57 = icmp ne i32 %56, 0
  br i1 %57, label %58, label %76

58:                                               ; preds = %55
  %59 = load ptr, ptr %8, align 8, !tbaa !9
  %60 = icmp ne ptr %59, null
  br i1 %60, label %61, label %70

61:                                               ; preds = %58
  %62 = load ptr, ptr %8, align 8, !tbaa !9
  %63 = load i8, ptr %62, align 1, !tbaa !30
  %64 = icmp ne i8 %63, 0
  br i1 %64, label %66, label %65

65:                                               ; preds = %61
  call void (ptr, i32, ptr, ...) @BUG_fl(ptr noundef @.str.2, i32 noundef 2681, ptr noundef @.str.33) #14
  unreachable

66:                                               ; preds = %61
  %67 = load ptr, ptr %8, align 8, !tbaa !9
  %68 = call i32 (ptr, ...) @error(ptr noundef @.str.10, ptr noundef %67)
  %69 = call i32 @const_error()
  br label %70

70:                                               ; preds = %66, %58
  %71 = load i32, ptr %10, align 4, !tbaa !11
  %72 = icmp ne i32 %71, 0
  br i1 %72, label %75, label %73

73:                                               ; preds = %70
  %74 = call i32 @common_exit(ptr noundef @.str.2, i32 noundef 2685, i32 noundef 128)
  call void @exit(i32 noundef %74) #15
  unreachable

75:                                               ; preds = %70
  br label %76

76:                                               ; preds = %75, %55
  %77 = load i32, ptr %12, align 4, !tbaa !11
  call void @llvm.lifetime.end.p0(i64 4, ptr %13) #12
  call void @llvm.lifetime.end.p0(i64 4, ptr %12) #12
  call void @llvm.lifetime.end.p0(i64 8, ptr %11) #12
  ret i32 %77
}