; Function Attrs: nounwind uwtable
define dso_local range(i32 0, 2) i32 @require_clean_work_tree(ptr noundef %0, ptr noundef %1, ptr noundef %2, i32 noundef %3, i32 noundef %4) local_unnamed_addr #0 {
  %6 = alloca %struct.rev_info, align 8
  %7 = alloca %struct.lock_file, align 8
  call void @llvm.lifetime.start.p0(i64 8, ptr nonnull %7) #20
  store i64 0, ptr %7, align 8
  %8 = call i32 @repo_hold_locked_index(ptr noundef %0, ptr noundef nonnull %7, i32 noundef 0) #20
  %9 = getelementptr inbounds nuw i8, ptr %0, i64 384
  %10 = load ptr, ptr %9, align 8, !tbaa !97
  %11 = call i32 @refresh_index(ptr noundef %10, i32 noundef 4, ptr noundef null, ptr noundef null, ptr noundef null) #20
  %12 = icmp sgt i32 %8, -1
  br i1 %12, label %13, label %14

13:                                               ; preds = %5
  call void @repo_update_index_if_able(ptr noundef nonnull %0, ptr noundef nonnull %7) #20
  br label %14

14:                                               ; preds = %13, %5
  %15 = call i32 @delete_tempfile(ptr noundef nonnull %7) #20
  call void @llvm.lifetime.start.p0(i64 3008, ptr nonnull %6) #20
  call void @repo_init_revisions(ptr noundef nonnull %0, ptr noundef nonnull %6, ptr noundef null) #20
  %.not.i = icmp eq i32 %3, 0
  br i1 %.not.i, label %has_unstaged_changes.exit, label %16

16:                                               ; preds = %14
  %17 = getelementptr inbounds nuw i8, ptr %6, i64 1636
  store i32 1, ptr %17, align 4, !tbaa !242
  %18 = getelementptr inbounds nuw i8, ptr %6, i64 1676
  store i32 1, ptr %18, align 4, !tbaa !89
  br label %has_unstaged_changes.exit

has_unstaged_changes.exit:                        ; preds = %14, %16
  %19 = getelementptr inbounds nuw i8, ptr %6, i64 1472
  %20 = getelementptr inbounds nuw i8, ptr %6, i64 1608
  store i32 1, ptr %20, align 8, !tbaa !243
  call void @diff_setup_done(ptr noundef nonnull %19) #20
  call void @run_diff_files(ptr noundef nonnull %6, i32 noundef 0) #20
  %21 = call i32 @diff_result_code(ptr noundef nonnull %6) #20
  call void @release_revisions(ptr noundef nonnull %6) #20
  call void @llvm.lifetime.end.p0(i64 3008, ptr nonnull %6) #20
  %.not = icmp eq i32 %21, 0
  br i1 %.not, label %31, label %22

22:                                               ; preds = %has_unstaged_changes.exit
  %23 = load i32, ptr @git_gettext_enabled, align 4, !tbaa !128
  %.not4.i = icmp eq i32 %23, 0
  br i1 %.not4.i, label %_.exit, label %24

24:                                               ; preds = %22
  %25 = call ptr @dcgettext(ptr noundef null, ptr noundef nonnull @.str.30, i32 noundef 5) #20
  br label %_.exit

_.exit:                                           ; preds = %22, %24
  %.0.i = phi ptr [ %25, %24 ], [ @.str.30, %22 ]
  %26 = load i8, ptr %1, align 1, !tbaa !26
  %.not.i23 = icmp eq i8 %26, 0
  br i1 %.not.i23, label %.thread, label %27

27:                                               ; preds = %_.exit
  %28 = load i32, ptr @git_gettext_enabled, align 4, !tbaa !128
  %.not4.i24 = icmp eq i32 %28, 0
  br i1 %.not4.i24, label %.thread, label %29

29:                                               ; preds = %27
  %30 = call ptr @dcgettext(ptr noundef null, ptr noundef nonnull %1, i32 noundef 5) #20
  br label %.thread

31:                                               ; preds = %has_unstaged_changes.exit
  %32 = call i32 @has_uncommitted_changes(ptr noundef nonnull %0, i32 noundef %3)
  %.not17 = icmp eq i32 %32, 0
  br i1 %.not17, label %59, label %40

.thread:                                          ; preds = %29, %27, %_.exit
  %.0.i25 = phi ptr [ %30, %29 ], [ @.str.29, %_.exit ], [ %1, %27 ]
  %33 = call i32 (ptr, ...) @error(ptr noundef %.0.i, ptr noundef %.0.i25) #20
  %34 = call i32 @has_uncommitted_changes(ptr noundef nonnull %0, i32 noundef %3)
  %.not1738 = icmp eq i32 %34, 0
  br i1 %.not1738, label %50, label %35

35:                                               ; preds = %.thread
  %36 = load i32, ptr @git_gettext_enabled, align 4, !tbaa !128
  %.not4.i27 = icmp eq i32 %36, 0
  br i1 %.not4.i27, label %_.exit29, label %37

37:                                               ; preds = %35
  %38 = call ptr @dcgettext(ptr noundef null, ptr noundef nonnull @.str.31, i32 noundef 5) #20
  br label %_.exit29

_.exit29:                                         ; preds = %35, %37
  %.0.i28 = phi ptr [ %38, %37 ], [ @.str.31, %35 ]
  %39 = call i32 (ptr, ...) @error(ptr noundef %.0.i28) #20
  br label %50

40:                                               ; preds = %31
  %41 = load i32, ptr @git_gettext_enabled, align 4, !tbaa !128
  %.not4.i30 = icmp eq i32 %41, 0
  br i1 %.not4.i30, label %_.exit32, label %42

42:                                               ; preds = %40
  %43 = call ptr @dcgettext(ptr noundef null, ptr noundef nonnull @.str.32, i32 noundef 5) #20
  br label %_.exit32

_.exit32:                                         ; preds = %40, %42
  %.0.i31 = phi ptr [ %43, %42 ], [ @.str.32, %40 ]
  %44 = load i8, ptr %1, align 1, !tbaa !26
  %.not.i33 = icmp eq i8 %44, 0
  br i1 %.not.i33, label %_.exit36, label %45

45:                                               ; preds = %_.exit32
  %46 = load i32, ptr @git_gettext_enabled, align 4, !tbaa !128
  %.not4.i34 = icmp eq i32 %46, 0
  br i1 %.not4.i34, label %_.exit36, label %47

47:                                               ; preds = %45
  %48 = call ptr @dcgettext(ptr noundef null, ptr noundef nonnull %1, i32 noundef 5) #20
  br label %_.exit36

_.exit36:                                         ; preds = %_.exit32, %45, %47
  %.0.i35 = phi ptr [ %48, %47 ], [ @.str.29, %_.exit32 ], [ %1, %45 ]
  %49 = call i32 (ptr, ...) @error(ptr noundef %.0.i31, ptr noundef %.0.i35) #20
  br label %50

50:                                               ; preds = %_.exit36, %_.exit29, %.thread
  %.not20 = icmp eq ptr %2, null
  br i1 %.not20, label %56, label %51

51:                                               ; preds = %50
  %52 = load i8, ptr %2, align 1, !tbaa !26
  %.not21 = icmp eq i8 %52, 0
  br i1 %.not21, label %53, label %54

53:                                               ; preds = %51
  call void (ptr, i32, ptr, ...) @BUG_fl(ptr noundef nonnull @.str.2, i32 noundef 2681, ptr noundef nonnull @.str.33) #22
  unreachable

54:                                               ; preds = %51
  %55 = call i32 (ptr, ...) @error(ptr noundef nonnull @.str.10, ptr noundef nonnull %2) #20
  br label %56

56:                                               ; preds = %54, %50
  %.not22 = icmp eq i32 %4, 0
  br i1 %.not22, label %57, label %59

57:                                               ; preds = %56
  %58 = call i32 @common_exit(ptr noundef nonnull @.str.2, i32 noundef 2685, i32 noundef 128) #20
  call void @exit(i32 noundef %58) #22
  unreachable

59:                                               ; preds = %31, %56
  %.144 = phi i32 [ 1, %56 ], [ 0, %31 ]
  call void @llvm.lifetime.end.p0(i64 8, ptr nonnull %7) #20
  ret i32 %.144
}